target datalayout = "e-m:e-p270:32:32-p271:32:32-p272:64:64-i64:64-i128:128-f80:128-n8:16:32:64-S128"
target triple = "x86_64-pc-linux-gnu"

@proto_arp = internal global i32 0, align 4
@arp_request_count = internal global i32 0, align 4

; Function Attrs: null_pointer_is_valid sspstrong uwtable
define internal void @request_seen(ptr noundef %0) #0 {
  %2 = alloca ptr, align 8
  store ptr %0, ptr %2, align 8
  %3 = call ptr @wmem_file_scope()
  %4 = load ptr, ptr %2, align 8
  %5 = load i32, ptr @proto_arp, align 4
  %6 = call ptr @p_get_proto_data(ptr noundef %3, ptr noundef %4, i32 noundef %5, i32 noundef 0)
  %7 = icmp eq ptr %6, null
  br i1 %7, label %8, label %11

8:                                                ; preds = %1
  %9 = load i32, ptr @arp_request_count, align 4
  %10 = add i32 %9, 1
  store i32 %10, ptr @arp_request_count, align 4
  br label %11

11:                                               ; preds = %8, %1
  ret void
}