; Function Attrs: null_pointer_is_valid sspstrong uwtable
define internal fastcc void @request_seen(ptr noundef %0) unnamed_addr #0 {
  %2 = tail call ptr @wmem_file_scope()
  %3 = load i32, ptr @proto_arp, align 4
  %4 = tail call ptr @p_get_proto_data(ptr noundef %2, ptr noundef %0, i32 noundef %3, i32 noundef 0)
  %5 = icmp eq ptr %4, null
  br i1 %5, label %6, label %9

6:                                                ; preds = %1
  %7 = load i32, ptr @arp_request_count, align 4
  %8 = add i32 %7, 1
  store i32 %8, ptr @arp_request_count, align 4
  br label %9

9:                                                ; preds = %6, %1
  ret void
}